; Function Attrs: mustprogress nofree norecurse nosync nounwind willreturn memory(argmem: read) uwtable
define dso_local noundef zeroext i1 @_ZN4llvm12FunctionType17isValidReturnTypeEPNS_4TypeE(ptr noundef readonly captures(none) %0) local_unnamed_addr #0 align 2 {
  %2 = getelementptr inbounds nuw i8, ptr %0, i64 8
  %3 = load i32, ptr %2, align 8
  %trunc = trunc i32 %3 to i8
  switch i8 %trunc, label %4 [
    i8 13, label %7
    i8 8, label %7
  ]

4:                                                ; preds = %1
  %5 = and i32 %3, 255
  %6 = icmp ne i32 %5, 9
  br label %7

7:                                                ; preds = %1, %1, %4
  %8 = phi i1 [ false, %1 ], [ %6, %4 ], [ false, %1 ]
  ret i1 %8
}